; Function Attrs: mustprogress nofree nounwind memory(readwrite, inaccessiblemem: write) uwtable
define noundef double @_ZNK8QuantLib9CmsMarket12weightedMeanERKNS_6MatrixES3_(ptr nocapture noundef nonnull readonly align 8 dereferenceable(544) %this, ptr nocapture noundef nonnull readonly align 8 dereferenceable(24) %var, ptr nocapture noundef nonnull readonly align 8 dereferenceable(24) %w) local_unnamed_addr #14 align 2 {
entry:
  %nExercise_ = getelementptr inbounds nuw i8, ptr %this, i64 144
  %0 = load i64, ptr %nExercise_, align 8, !tbaa !75
  %cmp21.not = icmp eq i64 %0, 0
  %nSwapIndexes_15.phi.trans.insert = getelementptr inbounds nuw i8, ptr %this, i64 152
  %.pre = load i64, ptr %nSwapIndexes_15.phi.trans.insert, align 8, !tbaa !101
  br i1 %cmp21.not, label %for.cond.cleanup, label %for.cond2.preheader.lr.ph

for.cond2.preheader.lr.ph:                        ; preds = %entry
  %cmp318.not = icmp eq i64 %.pre, 0
  %1 = load ptr, ptr %w, align 8
  %columns_.i.i = getelementptr inbounds nuw i8, ptr %w, i64 16
  %2 = load i64, ptr %columns_.i.i, align 8
  %3 = load ptr, ptr %var, align 8
  %columns_.i.i12 = getelementptr inbounds nuw i8, ptr %var, i64 16
  %4 = load i64, ptr %columns_.i.i12, align 8
  br i1 %cmp318.not, label %for.cond.cleanup, label %for.cond2.preheader.us

for.cond2.preheader.us:                           ; preds = %for.cond2.preheader.lr.ph, %for.cond2.for.cond.cleanup4_crit_edge.us
  %i.023.us = phi i64 [ %inc12.us, %for.cond2.for.cond.cleanup4_crit_edge.us ], [ 0, %for.cond2.preheader.lr.ph ]
  %mean.022.us = phi double [ %7, %for.cond2.for.cond.cleanup4_crit_edge.us ], [ 0.000000e+00, %for.cond2.preheader.lr.ph ]
  %mul.i.i.us = mul i64 %2, %i.023.us
  %add.ptr.i.i.us = getelementptr inbounds nuw double, ptr %1, i64 %mul.i.i.us
  %mul.i.i13.us = mul i64 %4, %i.023.us
  %add.ptr.i.i14.us = getelementptr inbounds nuw double, ptr %3, i64 %mul.i.i13.us
  br label %for.body5.us

for.body5.us:                                     ; preds = %for.cond2.preheader.us, %for.body5.us
  %j.020.us = phi i64 [ 0, %for.cond2.preheader.us ], [ %inc.us, %for.body5.us ]
  %mean.119.us = phi double [ %mean.022.us, %for.cond2.preheader.us ], [ %7, %for.body5.us ]
  %arrayidx.us = getelementptr inbounds nuw double, ptr %add.ptr.i.i.us, i64 %j.020.us
  %5 = load double, ptr %arrayidx.us, align 8, !tbaa !144
  %arrayidx7.us = getelementptr inbounds nuw double, ptr %add.ptr.i.i14.us, i64 %j.020.us
  %6 = load double, ptr %arrayidx7.us, align 8, !tbaa !144
  %mul.us = fmul double %5, %6
  %7 = tail call double @llvm.fmuladd.f64(double %mul.us, double %6, double %mean.119.us)
  %inc.us = add nuw i64 %j.020.us, 1
  %exitcond.not = icmp eq i64 %inc.us, %.pre
  br i1 %exitcond.not, label %for.cond2.for.cond.cleanup4_crit_edge.us, label %for.body5.us, !llvm.loop !199

for.cond2.for.cond.cleanup4_crit_edge.us:         ; preds = %for.body5.us
  %inc12.us = add nuw i64 %i.023.us, 1
  %exitcond28.not = icmp eq i64 %inc12.us, %0
  br i1 %exitcond28.not, label %for.cond.cleanup, label %for.cond2.preheader.us, !llvm.loop !200

for.cond.cleanup:                                 ; preds = %for.cond2.for.cond.cleanup4_crit_edge.us, %entry, %for.cond2.preheader.lr.ph
  %8 = phi i64 [ 0, %for.cond2.preheader.lr.ph ], [ %.pre, %entry ], [ %.pre, %for.cond2.for.cond.cleanup4_crit_edge.us ]
  %mean.0.lcssa = phi double [ 0.000000e+00, %for.cond2.preheader.lr.ph ], [ 0.000000e+00, %entry ], [ %7, %for.cond2.for.cond.cleanup4_crit_edge.us ]
  %mul16 = mul i64 %8, %0
  %conv = uitofp i64 %mul16 to double
  %div = fdiv double %mean.0.lcssa, %conv
  %call17 = tail call double @sqrt(double noundef %div) #29, !tbaa !201
  ret double %call17
}